target datalayout = "e-m:e-p270:32:32-p271:32:32-p272:64:64-i64:64-i128:128-f80:128-n8:16:32:64-S128"
target triple = "x86_64-pc-linux-gnu"

%class.QString = type { ptr }
%class.RichParameter = type { ptr, %class.QString, ptr, %class.QString, %class.QString, i8, i8, %class.QString }

@_ZTI13RichParameter = external constant ptr
@_ZTI12RichFileOpen = constant { ptr, ptr, ptr } { ptr getelementptr inbounds (ptr, ptr @_ZTVN10__cxxabiv120__si_class_type_infoE, i64 2), ptr @_ZTS12RichFileOpen, ptr @_ZTI13RichParameter }, align 8

; Function Attrs: mustprogress nounwind uwtable
define linkonce_odr noundef zeroext i1 @_ZNK13RichParameter8isOfTypeI12RichFileOpenEEbv(ptr noundef nonnull align 8 dereferenceable(56) %0) #0 comdat align 2 {
  %2 = alloca ptr, align 8
  %3 = alloca ptr, align 8
  store ptr %0, ptr %2, align 8
  %4 = load ptr, ptr %2, align 8
  %5 = icmp eq ptr %4, null
  br i1 %5, label %8, label %6

6:                                                ; preds = %1
  %7 = call ptr @__dynamic_cast(ptr %4, ptr @_ZTI13RichParameter, ptr @_ZTI12RichFileOpen, i64 0) #5
  br label %9

8:                                                ; preds = %1
  br label %9

9:                                                ; preds = %8, %6
  %10 = phi ptr [ %7, %6 ], [ null, %8 ]
  store ptr %10, ptr %3, align 8
  %11 = load ptr, ptr %3, align 8
  %12 = icmp ne ptr %11, null
  ret i1 %12
}

; Function Attrs: mustprogress uwtable
define noundef zeroext i1 @_ZN12RichFileOpeneqERK13RichParameter(ptr noundef nonnull align 8 dereferenceable(64) %0, ptr noundef nonnull align 8 dereferenceable(56) %1) unnamed_addr #1 align 2 personality ptr @__gxx_personality_v0 {
  %3 = alloca i1, align 1
  %4 = alloca ptr, align 8
  %5 = alloca ptr, align 8
  %6 = alloca %class.QString, align 8
  %7 = alloca i1, align 1
  %8 = alloca %class.QString, align 8
  %9 = alloca ptr, align 8
  %10 = alloca i32, align 4
  %11 = alloca i1, align 1
  store ptr %0, ptr %4, align 8
  store ptr %1, ptr %5, align 8
  %12 = load ptr, ptr %4, align 8
  %13 = load ptr, ptr %5, align 8
  %14 = call noundef zeroext i1 @_ZNK13RichParameter8isOfTypeI12RichFileOpenEEbv(ptr noundef nonnull align 8 dereferenceable(56) %13)
  store i1 false, ptr %7, align 1
  store i1 false, ptr %11, align 1
  br i1 %14, label %15, label %33

15:                                               ; preds = %2
  %16 = getelementptr inbounds %class.RichParameter, ptr %12, i32 0, i32 1
  %17 = load ptr, ptr %5, align 8
  %18 = call noundef nonnull align 8 dereferenceable(8) ptr @_ZNK13RichParameter4nameEv(ptr noundef nonnull align 8 dereferenceable(56) %17)
  %19 = call noundef zeroext i1 @_ZeqRK7QStringS1_(ptr noundef nonnull align 8 dereferenceable(8) %16, ptr noundef nonnull align 8 dereferenceable(8) %18) #5
  br i1 %19, label %20, label %33

20:                                               ; preds = %15
  %21 = call noundef nonnull align 8 dereferenceable(8) ptr @_ZNK13RichParameter5valueEv(ptr noundef nonnull align 8 dereferenceable(56) %12)
  %22 = load ptr, ptr %21, align 8
  %23 = getelementptr inbounds ptr, ptr %22, i64 5
  %24 = load ptr, ptr %23, align 8
  call void %24(ptr dead_on_unwind writable sret(%class.QString) align 8 %6, ptr noundef nonnull align 8 dereferenceable(8) %21)
  store i1 true, ptr %7, align 1
  %25 = load ptr, ptr %5, align 8
  %26 = invoke noundef nonnull align 8 dereferenceable(8) ptr @_ZNK13RichParameter5valueEv(ptr noundef nonnull align 8 dereferenceable(56) %25)
          to label %27 unwind label %42

27:                                               ; preds = %20
  %28 = load ptr, ptr %26, align 8
  %29 = getelementptr inbounds ptr, ptr %28, i64 5
  %30 = load ptr, ptr %29, align 8
  invoke void %30(ptr dead_on_unwind writable sret(%class.QString) align 8 %8, ptr noundef nonnull align 8 dereferenceable(8) %26)
          to label %31 unwind label %42

31:                                               ; preds = %27
  store i1 true, ptr %11, align 1
  %32 = call noundef zeroext i1 @_ZeqRK7QStringS1_(ptr noundef nonnull align 8 dereferenceable(8) %6, ptr noundef nonnull align 8 dereferenceable(8) %8) #5
  br label %33

33:                                               ; preds = %31, %15, %2
  %34 = phi i1 [ false, %15 ], [ false, %2 ], [ %32, %31 ]
  store i1 %34, ptr %3, align 1
  %35 = load i1, ptr %11, align 1
  br i1 %35, label %36, label %37

36:                                               ; preds = %33
  call void @_ZN7QStringD2Ev(ptr noundef nonnull align 8 dereferenceable(8) %8) #5
  br label %37

37:                                               ; preds = %36, %33
  %38 = load i1, ptr %7, align 1
  br i1 %38, label %39, label %40

39:                                               ; preds = %37
  call void @_ZN7QStringD2Ev(ptr noundef nonnull align 8 dereferenceable(8) %6) #5
  br label %40

40:                                               ; preds = %39, %37
  %41 = load i1, ptr %3, align 1
  ret i1 %41

42:                                               ; preds = %27, %20
  %43 = landingpad { ptr, i32 }
          cleanup
  %44 = extractvalue { ptr, i32 } %43, 0
  store ptr %44, ptr %9, align 8
  %45 = extractvalue { ptr, i32 } %43, 1
  store i32 %45, ptr %10, align 4
  %46 = load i1, ptr %7, align 1
  br i1 %46, label %47, label %48

47:                                               ; preds = %42
  call void @_ZN7QStringD2Ev(ptr noundef nonnull align 8 dereferenceable(8) %6) #5
  br label %48

48:                                               ; preds = %47, %42
  br label %49

49:                                               ; preds = %48
  %50 = load ptr, ptr %9, align 8
  %51 = load i32, ptr %10, align 4
  %52 = insertvalue { ptr, i32 } poison, ptr %50, 0
  %53 = insertvalue { ptr, i32 } %52, i32 %51, 1
  resume { ptr, i32 } %53
}