; Function Attrs: mustprogress uwtable
define noundef zeroext i1 @_ZN12RichFileOpeneqERK13RichParameter(ptr noundef nonnull align 8 dereferenceable(64) %0, ptr noundef nonnull align 8 dereferenceable(56) %1) unnamed_addr #1 align 2 personality ptr @__gxx_personality_v0 {
  %3 = alloca %class.QString, align 8
  %4 = alloca %class.QString, align 8
  %5 = tail call ptr @__dynamic_cast(ptr nonnull %1, ptr nonnull @_ZTI13RichParameter, ptr nonnull @_ZTI12RichFileOpen, i64 0) #11
  %.not = icmp eq ptr %5, null
  br i1 %.not, label %.critedge, label %6

6:                                                ; preds = %2
  %7 = getelementptr inbounds i8, ptr %0, i64 8
  %8 = tail call noundef nonnull align 8 dereferenceable(8) ptr @_ZNK13RichParameter4nameEv(ptr noundef nonnull align 8 dereferenceable(56) %1)
  %9 = tail call noundef zeroext i1 @_ZeqRK7QStringS1_(ptr noundef nonnull align 8 dereferenceable(8) %7, ptr noundef nonnull align 8 dereferenceable(8) %8) #11
  br i1 %9, label %10, label %.critedge

10:                                               ; preds = %6
  %11 = tail call noundef nonnull align 8 dereferenceable(8) ptr @_ZNK13RichParameter5valueEv(ptr noundef nonnull align 8 dereferenceable(56) %0)
  %12 = load ptr, ptr %11, align 8
  %13 = getelementptr inbounds i8, ptr %12, i64 40
  %14 = load ptr, ptr %13, align 8
  call void %14(ptr dead_on_unwind nonnull writable sret(%class.QString) align 8 %3, ptr noundef nonnull align 8 dereferenceable(8) %11)
  %15 = invoke noundef nonnull align 8 dereferenceable(8) ptr @_ZNK13RichParameter5valueEv(ptr noundef nonnull align 8 dereferenceable(56) %1)
          to label %16 unwind label %31

16:                                               ; preds = %10
  %17 = load ptr, ptr %15, align 8
  %18 = getelementptr inbounds i8, ptr %17, i64 40
  %19 = load ptr, ptr %18, align 8
  invoke void %19(ptr dead_on_unwind nonnull writable sret(%class.QString) align 8 %4, ptr noundef nonnull align 8 dereferenceable(8) %15)
          to label %20 unwind label %31

20:                                               ; preds = %16
  %21 = call noundef zeroext i1 @_ZeqRK7QStringS1_(ptr noundef nonnull align 8 dereferenceable(8) %3, ptr noundef nonnull align 8 dereferenceable(8) %4) #11
  %22 = load ptr, ptr %4, align 8
  %23 = load atomic i32, ptr %22 monotonic, align 4
  switch i32 %23, label %_ZN9QtPrivate8RefCount5derefEv.exit.i [
    i32 0, label %_ZN9QtPrivate8RefCount5derefEv.exit.thread2.i
    i32 -1, label %_ZN7QStringD2Ev.exit
  ]

_ZN9QtPrivate8RefCount5derefEv.exit.i:            ; preds = %20
  %24 = atomicrmw sub ptr %22, i32 1 seq_cst, align 4
  %.not.i = icmp eq i32 %24, 1
  br i1 %.not.i, label %_ZN9QtPrivate8RefCount5derefEv.exit._ZN9QtPrivate8RefCount5derefEv.exit.thread2_crit_edge.i, label %_ZN7QStringD2Ev.exit

_ZN9QtPrivate8RefCount5derefEv.exit._ZN9QtPrivate8RefCount5derefEv.exit.thread2_crit_edge.i: ; preds = %_ZN9QtPrivate8RefCount5derefEv.exit.i
  %.pre.i = load ptr, ptr %4, align 8
  br label %_ZN9QtPrivate8RefCount5derefEv.exit.thread2.i

_ZN9QtPrivate8RefCount5derefEv.exit.thread2.i:    ; preds = %_ZN9QtPrivate8RefCount5derefEv.exit._ZN9QtPrivate8RefCount5derefEv.exit.thread2_crit_edge.i, %20
  %25 = phi ptr [ %.pre.i, %_ZN9QtPrivate8RefCount5derefEv.exit._ZN9QtPrivate8RefCount5derefEv.exit.thread2_crit_edge.i ], [ %22, %20 ]
  call void @_ZN10QArrayData10deallocateEPS_mm(ptr noundef %25, i64 noundef 2, i64 noundef 8) #11
  br label %_ZN7QStringD2Ev.exit

_ZN7QStringD2Ev.exit:                             ; preds = %20, %_ZN9QtPrivate8RefCount5derefEv.exit.i, %_ZN9QtPrivate8RefCount5derefEv.exit.thread2.i
  %26 = load ptr, ptr %3, align 8
  %27 = load atomic i32, ptr %26 monotonic, align 4
  switch i32 %27, label %_ZN9QtPrivate8RefCount5derefEv.exit.i11 [
    i32 0, label %_ZN9QtPrivate8RefCount5derefEv.exit.thread2.i10
    i32 -1, label %.critedge
  ]

_ZN9QtPrivate8RefCount5derefEv.exit.i11:          ; preds = %_ZN7QStringD2Ev.exit
  %28 = atomicrmw sub ptr %26, i32 1 seq_cst, align 4
  %.not.i12 = icmp eq i32 %28, 1
  br i1 %.not.i12, label %_ZN9QtPrivate8RefCount5derefEv.exit._ZN9QtPrivate8RefCount5derefEv.exit.thread2_crit_edge.i13, label %.critedge

_ZN9QtPrivate8RefCount5derefEv.exit._ZN9QtPrivate8RefCount5derefEv.exit.thread2_crit_edge.i13: ; preds = %_ZN9QtPrivate8RefCount5derefEv.exit.i11
  %.pre.i14 = load ptr, ptr %3, align 8
  br label %_ZN9QtPrivate8RefCount5derefEv.exit.thread2.i10

_ZN9QtPrivate8RefCount5derefEv.exit.thread2.i10:  ; preds = %_ZN9QtPrivate8RefCount5derefEv.exit._ZN9QtPrivate8RefCount5derefEv.exit.thread2_crit_edge.i13, %_ZN7QStringD2Ev.exit
  %29 = phi ptr [ %.pre.i14, %_ZN9QtPrivate8RefCount5derefEv.exit._ZN9QtPrivate8RefCount5derefEv.exit.thread2_crit_edge.i13 ], [ %26, %_ZN7QStringD2Ev.exit ]
  call void @_ZN10QArrayData10deallocateEPS_mm(ptr noundef %29, i64 noundef 2, i64 noundef 8) #11
  br label %.critedge

.critedge:                                        ; preds = %2, %6, %_ZN9QtPrivate8RefCount5derefEv.exit.thread2.i10, %_ZN9QtPrivate8RefCount5derefEv.exit.i11, %_ZN7QStringD2Ev.exit
  %30 = phi i1 [ %21, %_ZN7QStringD2Ev.exit ], [ %21, %_ZN9QtPrivate8RefCount5derefEv.exit.i11 ], [ %21, %_ZN9QtPrivate8RefCount5derefEv.exit.thread2.i10 ], [ false, %6 ], [ false, %2 ]
  ret i1 %30

31:                                               ; preds = %16, %10
  %32 = landingpad { ptr, i32 }
          cleanup
  call void @_ZN7QStringD2Ev(ptr noundef nonnull align 8 dereferenceable(8) %3) #11
  resume { ptr, i32 } %32
}